target datalayout = "e-m:e-p270:32:32-p271:32:32-p272:64:64-i64:64-i128:128-f80:128-n8:16:32:64-S128"
target triple = "x86_64-pc-linux-gnu"

%struct.GVC_s = type { %struct.GVCOMMON_s, ptr, i8, ptr, i32, ptr, ptr, [5 x ptr], [5 x ptr], ptr, ptr, %struct.dtdisc_s_, ptr, %struct.gvplugin_active_textlayout_s, ptr, ptr, ptr, %struct.gvplugin_active_layout_s, ptr, ptr, ptr, %struct.pointf_s, %struct.pointf_s, %struct.pointf_s, %struct.point, %struct.boxf, i32, i8, i8, i8, ptr, ptr, ptr, ptr, i32, ptr, ptr, double, ptr, %struct.color_s, i32 }
%struct.GVCOMMON_s = type { ptr, ptr, i32, i8, i8, ptr, ptr, ptr, i32, ptr, i32 }
%struct.dtdisc_s_ = type { i32, i32, i32, ptr, ptr, ptr }
%struct.gvplugin_active_textlayout_s = type { ptr, i32, ptr }
%struct.gvplugin_active_layout_s = type { ptr, i32, ptr, ptr }
%struct.pointf_s = type { double, double }
%struct.point = type { i32, i32 }
%struct.boxf = type { %struct.pointf_s, %struct.pointf_s }
%struct.color_s = type { %union.anon, i32 }
%union.anon = type { [4 x double] }
%struct.GVG_s = type { ptr, ptr, ptr, i32, ptr }
%struct.gvplugin_package_s = type { ptr, ptr, ptr }
%struct.gvplugin_available_s = type { ptr, ptr, i32, ptr, ptr }

@graphviz_errors = external global i32, align 4

; Function Attrs: nounwind uwtable
define i32 @gvFreeContext(ptr noundef %0) #0 {
  %2 = alloca ptr, align 8
  %3 = alloca ptr, align 8
  %4 = alloca ptr, align 8
  %5 = alloca ptr, align 8
  %6 = alloca ptr, align 8
  %7 = alloca ptr, align 8
  %8 = alloca ptr, align 8
  %9 = alloca i64, align 8
  store ptr %0, ptr %2, align 8, !tbaa !9
  call void @llvm.lifetime.start.p0(i64 8, ptr %3) #9
  call void @llvm.lifetime.start.p0(i64 8, ptr %4) #9
  call void @llvm.lifetime.start.p0(i64 8, ptr %5) #9
  call void @llvm.lifetime.start.p0(i64 8, ptr %6) #9
  call void @llvm.lifetime.start.p0(i64 8, ptr %7) #9
  call void @llvm.lifetime.start.p0(i64 8, ptr %8) #9
  call void @emit_once_reset()
  %10 = load ptr, ptr %2, align 8, !tbaa !9
  %11 = getelementptr inbounds nuw %struct.GVC_s, ptr %10, i32 0, i32 5
  %12 = load ptr, ptr %11, align 8, !tbaa !39
  store ptr %12, ptr %4, align 8, !tbaa !40
  br label %13

13:                                               ; preds = %16, %1
  %14 = load ptr, ptr %4, align 8, !tbaa !40
  store ptr %14, ptr %3, align 8, !tbaa !40
  %15 = icmp ne ptr %14, null
  br i1 %15, label %16, label %21

16:                                               ; preds = %13
  %17 = load ptr, ptr %3, align 8, !tbaa !40
  %18 = getelementptr inbounds nuw %struct.GVG_s, ptr %17, i32 0, i32 1
  %19 = load ptr, ptr %18, align 8, !tbaa !41
  store ptr %19, ptr %4, align 8, !tbaa !40
  %20 = load ptr, ptr %3, align 8, !tbaa !40
  call void @free(ptr noundef %20) #9
  br label %13, !llvm.loop !43

21:                                               ; preds = %13
  %22 = load ptr, ptr %2, align 8, !tbaa !9
  %23 = getelementptr inbounds nuw %struct.GVC_s, ptr %22, i32 0, i32 9
  %24 = load ptr, ptr %23, align 8, !tbaa !45
  store ptr %24, ptr %6, align 8, !tbaa !46
  br label %25

25:                                               ; preds = %28, %21
  %26 = load ptr, ptr %6, align 8, !tbaa !46
  store ptr %26, ptr %5, align 8, !tbaa !46
  %27 = icmp ne ptr %26, null
  br i1 %27, label %28, label %39

28:                                               ; preds = %25
  %29 = load ptr, ptr %5, align 8, !tbaa !46
  %30 = getelementptr inbounds nuw %struct.gvplugin_package_s, ptr %29, i32 0, i32 0
  %31 = load ptr, ptr %30, align 8, !tbaa !47
  store ptr %31, ptr %6, align 8, !tbaa !46
  %32 = load ptr, ptr %5, align 8, !tbaa !46
  %33 = getelementptr inbounds nuw %struct.gvplugin_package_s, ptr %32, i32 0, i32 1
  %34 = load ptr, ptr %33, align 8, !tbaa !49
  call void @free(ptr noundef %34) #9
  %35 = load ptr, ptr %5, align 8, !tbaa !46
  %36 = getelementptr inbounds nuw %struct.gvplugin_package_s, ptr %35, i32 0, i32 2
  %37 = load ptr, ptr %36, align 8, !tbaa !50
  call void @free(ptr noundef %37) #9
  %38 = load ptr, ptr %5, align 8, !tbaa !46
  call void @free(ptr noundef %38) #9
  br label %25, !llvm.loop !51

39:                                               ; preds = %25
  %40 = load ptr, ptr %2, align 8, !tbaa !9
  call void @gvjobs_delete(ptr noundef %40)
  %41 = load ptr, ptr %2, align 8, !tbaa !9
  %42 = getelementptr inbounds nuw %struct.GVC_s, ptr %41, i32 0, i32 1
  %43 = load ptr, ptr %42, align 8, !tbaa !52
  call void @free(ptr noundef %43) #9
  %44 = load ptr, ptr %2, align 8, !tbaa !9
  %45 = getelementptr inbounds nuw %struct.GVC_s, ptr %44, i32 0, i32 3
  %46 = load ptr, ptr %45, align 8, !tbaa !53
  call void @free(ptr noundef %46) #9
  %47 = load ptr, ptr %2, align 8, !tbaa !9
  call void @textfont_dict_close(ptr noundef %47)
  call void @llvm.lifetime.start.p0(i64 8, ptr %9) #9
  store i64 0, ptr %9, align 8, !tbaa !36
  br label %48

48:                                               ; preds = %72, %39
  %49 = load i64, ptr %9, align 8, !tbaa !36
  %50 = icmp ult i64 %49, 5
  br i1 %50, label %52, label %51

51:                                               ; preds = %48
  call void @llvm.lifetime.end.p0(i64 8, ptr %9) #9
  br label %75

52:                                               ; preds = %48
  %53 = load ptr, ptr %2, align 8, !tbaa !9
  %54 = getelementptr inbounds nuw %struct.GVC_s, ptr %53, i32 0, i32 7
  %55 = load i64, ptr %9, align 8, !tbaa !36
  %56 = getelementptr inbounds nuw [5 x ptr], ptr %54, i64 0, i64 %55
  %57 = load ptr, ptr %56, align 8, !tbaa !54
  store ptr %57, ptr %7, align 8, !tbaa !54
  br label %58

58:                                               ; preds = %69, %52
  %59 = load ptr, ptr %7, align 8, !tbaa !54
  %60 = icmp ne ptr %59, null
  br i1 %60, label %61, label %71

61:                                               ; preds = %58
  %62 = load ptr, ptr %7, align 8, !tbaa !54
  %63 = getelementptr inbounds nuw %struct.gvplugin_available_s, ptr %62, i32 0, i32 0
  %64 = load ptr, ptr %63, align 8, !tbaa !56
  store ptr %64, ptr %8, align 8, !tbaa !54
  %65 = load ptr, ptr %7, align 8, !tbaa !54
  %66 = getelementptr inbounds nuw %struct.gvplugin_available_s, ptr %65, i32 0, i32 1
  %67 = load ptr, ptr %66, align 8, !tbaa !58
  call void @free(ptr noundef %67) #9
  %68 = load ptr, ptr %7, align 8, !tbaa !54
  call void @free(ptr noundef %68) #9
  br label %69

69:                                               ; preds = %61
  %70 = load ptr, ptr %8, align 8, !tbaa !54
  store ptr %70, ptr %7, align 8, !tbaa !54
  br label %58, !llvm.loop !59

71:                                               ; preds = %58
  br label %72

72:                                               ; preds = %71
  %73 = load i64, ptr %9, align 8, !tbaa !36
  %74 = add i64 %73, 1
  store i64 %74, ptr %9, align 8, !tbaa !36
  br label %48, !llvm.loop !60

75:                                               ; preds = %51
  %76 = load ptr, ptr %2, align 8, !tbaa !9
  call void @free(ptr noundef %76) #9
  %77 = load i32, ptr @graphviz_errors, align 4, !tbaa !7
  %78 = call i32 @agerrors()
  %79 = add nsw i32 %77, %78
  call void @llvm.lifetime.end.p0(i64 8, ptr %8) #9
  call void @llvm.lifetime.end.p0(i64 8, ptr %7) #9
  call void @llvm.lifetime.end.p0(i64 8, ptr %6) #9
  call void @llvm.lifetime.end.p0(i64 8, ptr %5) #9
  call void @llvm.lifetime.end.p0(i64 8, ptr %4) #9
  call void @llvm.lifetime.end.p0(i64 8, ptr %3) #9
  ret i32 %79
}