; Function Attrs: nounwind uwtable
define i32 @gvFreeContext(ptr noundef %0) local_unnamed_addr #2 {
  tail call void @emit_once_reset() #12
  %2 = getelementptr inbounds nuw i8, ptr %0, i64 104
  %3 = load ptr, ptr %2, align 8, !tbaa !35
  %.not28 = icmp eq ptr %3, null
  br i1 %.not28, label %._crit_edge, label %.lr.ph

.lr.ph:                                           ; preds = %1, %.lr.ph
  %.02329 = phi ptr [ %5, %.lr.ph ], [ %3, %1 ]
  %4 = getelementptr inbounds nuw i8, ptr %.02329, i64 8
  %5 = load ptr, ptr %4, align 8, !tbaa !36
  tail call void @free(ptr noundef nonnull %.02329) #12
  %.not = icmp eq ptr %5, null
  br i1 %.not, label %._crit_edge, label %.lr.ph, !llvm.loop !39

._crit_edge:                                      ; preds = %.lr.ph, %1
  %6 = getelementptr inbounds nuw i8, ptr %0, i64 200
  %7 = load ptr, ptr %6, align 8, !tbaa !41
  %.not2630 = icmp eq ptr %7, null
  br i1 %.not2630, label %._crit_edge34, label %.lr.ph33

.lr.ph33:                                         ; preds = %._crit_edge, %.lr.ph33
  %.02531 = phi ptr [ %8, %.lr.ph33 ], [ %7, %._crit_edge ]
  %8 = load ptr, ptr %.02531, align 8, !tbaa !42
  %9 = getelementptr inbounds nuw i8, ptr %.02531, i64 8
  %10 = load ptr, ptr %9, align 8, !tbaa !44
  tail call void @free(ptr noundef %10) #12
  %11 = getelementptr inbounds nuw i8, ptr %.02531, i64 16
  %12 = load ptr, ptr %11, align 8, !tbaa !45
  tail call void @free(ptr noundef %12) #12
  tail call void @free(ptr noundef nonnull %.02531) #12
  %.not26 = icmp eq ptr %8, null
  br i1 %.not26, label %._crit_edge34, label %.lr.ph33, !llvm.loop !46

._crit_edge34:                                    ; preds = %.lr.ph33, %._crit_edge
  tail call void @gvjobs_delete(ptr noundef %0) #12
  %13 = getelementptr inbounds nuw i8, ptr %0, i64 72
  %14 = load ptr, ptr %13, align 8, !tbaa !47
  tail call void @free(ptr noundef %14) #12
  %15 = getelementptr inbounds nuw i8, ptr %0, i64 88
  %16 = load ptr, ptr %15, align 8, !tbaa !48
  tail call void @free(ptr noundef %16) #12
  tail call void @textfont_dict_close(ptr noundef %0) #12
  %17 = getelementptr inbounds nuw i8, ptr %0, i64 120
  br label %22

18:                                               ; preds = %._crit_edge39
  tail call void @free(ptr noundef %0) #12
  %19 = load i32, ptr @graphviz_errors, align 4, !tbaa !49
  %20 = tail call i32 @agerrors() #12
  %21 = add nsw i32 %20, %19
  ret i32 %21

22:                                               ; preds = %._crit_edge34, %._crit_edge39
  %.040 = phi i64 [ 0, %._crit_edge34 ], [ %28, %._crit_edge39 ]
  %23 = getelementptr inbounds nuw [5 x ptr], ptr %17, i64 0, i64 %.040
  %24 = load ptr, ptr %23, align 8, !tbaa !50
  %.not2735 = icmp eq ptr %24, null
  br i1 %.not2735, label %._crit_edge39, label %.lr.ph38

.lr.ph38:                                         ; preds = %22, %.lr.ph38
  %.02436 = phi ptr [ %25, %.lr.ph38 ], [ %24, %22 ]
  %25 = load ptr, ptr %.02436, align 8, !tbaa !52
  %26 = getelementptr inbounds nuw i8, ptr %.02436, i64 8
  %27 = load ptr, ptr %26, align 8, !tbaa !54
  tail call void @free(ptr noundef %27) #12
  tail call void @free(ptr noundef nonnull %.02436) #12
  %.not27 = icmp eq ptr %25, null
  br i1 %.not27, label %._crit_edge39, label %.lr.ph38, !llvm.loop !55

._crit_edge39:                                    ; preds = %.lr.ph38, %22
  %28 = add nuw nsw i64 %.040, 1
  %exitcond.not = icmp eq i64 %28, 5
  br i1 %exitcond.not, label %18, label %22, !llvm.loop !56
}